Certificate:
    Data:
        Version: 3 (0x2)
        Serial Number:
            04:23:84:74:4e:b2:09:97:37:d4:08:6c:1b:3f:c4:3a:f0:a1
        Signature Algorithm: sha256WithRSAEncryption
        Issuer: C = US, O = Let's Encrypt, CN = Let's Encrypt Authority X3
        Validity
            Not Before: Jul 26 06:14:21 2019 GMT
            Not After : Oct 24 06:14:21 2019 GMT
        Subject: CN = *.one.com
        Subject Public Key Info:
            Public Key Algorithm: rsaEncryption
                RSA Public-Key: (2048 bit)
                Modulus:
                    00:b0:10:a2:a3:c8:70:be:a5:e1:af:fa:2d:da:a9:
                    9c:0d:4b:d1:19:7b:25:bf:47:41:90:b9:a3:71:28:
                    79:49:c8:32:9e:9a:4e:86:ac:37:69:c6:7d:0f:23:
                    88:32:35:40:e8:00:ed:c7:da:47:4f:e6:9d:3c:a4:
                    ad:fa:92:4a:77:17:28:46:35:b8:96:bd:fe:06:ff:
                    69:b7:7f:b8:b8:fb:df:d6:1e:ef:69:14:69:4a:2a:
                    54:81:1e:2f:4b:ce:e9:e0:d2:4c:db:9b:8b:16:b7:
                    6a:fc:02:49:ff:f5:9d:1d:28:ce:15:5f:04:cb:5b:
                    cf:95:e3:78:52:52:30:1f:d3:a2:fc:63:b0:28:e5:
                    bd:6a:1b:f6:16:a9:4e:92:24:22:06:3c:85:35:4e:
                    52:9d:e9:69:97:ef:2b:cc:68:24:8f:c7:07:e5:a5:
                    12:c7:cb:c9:c6:fc:28:1c:21:c2:2a:eb:ca:e5:cb:
                    e7:1f:7e:3c:f7:7f:7c:0e:6b:8d:c8:17:f1:ef:29:
                    e2:22:c2:80:a9:86:af:3c:a4:a5:6c:cd:a2:02:2f:
                    bd:a1:51:9b:8e:05:db:70:f2:ad:e1:f8:de:48:7b:
                    1d:c6:ac:44:4f:1b:7b:1f:ad:45:9b:3d:9c:b1:ad:
                    fd:49:1f:27:74:d0:f2:65:b1:bb:f7:96:17:db:65:
                    e2:89
                Exponent: 65537 (0x10001)
        X509v3 extensions:
            X509v3 Key Usage: critical
                Digital Signature, Key Encipherment
            X509v3 Extended Key Usage:
                TLS Web Server Authentication, TLS Web Client Authentication
            X509v3 Basic Constraints: critical
                CA:FALSE
            X509v3 Subject Key Identifier:
                C1:AA:5B:F6:93:1A:24:A2:5C:A0:04:77:31:5D:F9:8C:7E:E3:31:BD
            X509v3 Authority Key Identifier:
                keyid:A8:4A:6A:63:04:7D:DD:BA:E6:D1:39:B7:A6:45:65:EF:F3:A8:EC:A1

            Authority Information Access:
                OCSP - URI:http://ocsp.int-x3.letsencrypt.org
                CA Issuers - URI:http://cert.int-x3.letsencrypt.org/

            X509v3 Subject Alternative Name:
                DNS:*.one.com, DNS:one.com
            X509v3 Certificate Policies:
                Policy: 2.23.140.1.2.1
                Policy: 1.3.6.1.4.1.44947.1.1.1
                  CPS: http://cps.letsencrypt.org

            CT Precertificate SCTs:
                Signed Certificate Timestamp:
                    Version   : v1 (0x0)
                    Log ID    : 6F:53:76:AC:31:F0:31:19:D8:99:00:A4:51:15:FF:77:
                                15:1C:11:D9:02:C1:00:29:06:8D:B2:08:9A:37:D9:13
                    Timestamp : Jul 26 07:14:21.080 2019 GMT
                    Extensions: none
                    Signature : ecdsa-with-SHA256
                                30:46:02:21:00:81:C9:A3:1B:84:7B:B1:07:FD:AD:8E:
                                74:FE:E1:56:D1:07:98:D8:84:E4:CF:2E:9B:ED:D9:80:
                                D6:70:91:18:09:02:21:00:C3:BB:67:83:E8:AF:7C:1C:
                                EC:FD:46:DD:A3:4A:EA:96:1F:C3:F8:CF:BB:56:16:13:
                                9E:12:EF:90:2A:7B:35:75
                Signed Certificate Timestamp:
                    Version   : v1 (0x0)
                    Log ID    : 63:F2:DB:CD:E8:3B:CC:2C:CF:0B:72:84:27:57:6B:33:
                                A4:8D:61:77:8F:BD:75:A6:38:B1:C7:68:54:4B:D8:8D
                    Timestamp : Jul 26 07:14:21.023 2019 GMT
                    Extensions: none
                    Signature : ecdsa-with-SHA256
                                30:44:02:20:4B:7F:F2:1B:AB:5B:C4:B9:F5:E0:BE:C0:
                                3B:8C:F5:51:E3:72:EB:49:76:1D:1C:AC:66:41:A9:15:
                                43:F2:6F:A3:02:20:25:E2:34:34:C3:18:F0:18:5D:C7:
                                C7:18:1A:D3:FD:FE:F0:D2:4E:F2:36:13:EF:9F:38:83:
                                3C:50:E4:27:7F:8F
    Signature Algorithm: sha256WithRSAEncryption
         18:3d:1f:eb:1a:c6:a9:1a:fb:04:4b:81:68:47:f0:9c:61:0a:
         35:08:ef:30:34:e8:c1:5c:9a:cf:1d:12:41:0d:96:44:bd:c8:
         90:ef:87:06:ed:a7:fb:ea:87:1f:07:23:8d:00:18:22:02:52:
         79:b3:4e:42:69:e2:cc:11:5f:6f:fe:02:04:cb:6a:94:87:4a:
         1d:9b:15:67:e9:31:c5:65:4c:49:30:49:ee:5e:d0:a1:6d:54:
         56:03:88:cd:5f:3e:0b:7b:77:e1:b6:6a:75:3d:ca:ba:4c:99:
         09:97:3c:3f:96:9e:37:2d:5c:79:55:0a:b5:1c:e5:05:52:59:
         62:0e:b5:39:41:4c:4e:e1:a2:44:51:f4:39:7a:8c:4b:fc:42:
         54:3a:9b:9f:90:e9:18:65:ae:2f:b1:58:ca:88:83:96:3a:ff:
         63:d6:45:0e:51:33:1d:25:73:c6:82:85:52:e5:32:45:f0:4b:
         a3:16:da:8f:52:7d:1f:78:d1:ef:73:45:83:1d:5d:4a:ce:36:
         e1:ba:c7:94:e9:cf:a7:69:38:76:91:94:07:a4:ec:59:a6:9b:
         34:b6:50:93:cc:8d:54:52:ec:1a:99:bf:97:42:23:b1:ff:ad:
         69:ae:cd:f1:c8:2f:cf:c6:20:1b:63:8f:90:c3:23:35:33:84:
         a3:93:d0:d4
-----BEGIN CERTIFICATE-----
MIIFUzCCBDugAwIBAgISBCOEdE6yCZc31AhsGz/EOvChMA0GCSqGSIb3DQEBCwUA
MEoxCzAJBgNVBAYTAlVTMRYwFAYDVQQKEw1MZXQncyBFbmNyeXB0MSMwIQYDVQQD
ExpMZXQncyBFbmNyeXB0IEF1dGhvcml0eSBYMzAeFw0xOTA3MjYwNjE0MjFaFw0x
OTEwMjQwNjE0MjFaMBQxEjAQBgNVBAMMCSoub25lLmNvbTCCASIwDQYJKoZIhvcN
AQEBBQADggEPADCCAQoCggEBALAQoqPIcL6l4a/6LdqpnA1L0Rl7Jb9HQZC5o3Eo
eUnIMp6aToasN2nGfQ8jiDI1QOgA7cfaR0/mnTykrfqSSncXKEY1uJa9/gb/abd/
uLj739Ye72kUaUoqVIEeL0vO6eDSTNubixa3avwCSf/1nR0ozhVfBMtbz5XjeFJS
MB/TovxjsCjlvWob9hapTpIkIgY8hTVOUp3paZfvK8xoJI/HB+WlEsfLycb8KBwh
wirryuXL5x9+PPd/fA5rjcgX8e8p4iLCgKmGrzykpWzNogIvvaFRm44F23DyreH4
3kh7HcasRE8bex+tRZs9nLGt/UkfJ3TQ8mWxu/eWF9tl4okCAwEAAaOCAmcwggJj
MA4GA1UdDwEB/wQEAwIFoDAdBgNVHSUEFjAUBggrBgEFBQcDAQYIKwYBBQUHAwIw
DAYDVR0TAQH/BAIwADAdBgNVHQ4EFgQUwapb9pMaJKJcoAR3MV35jH7jMb0wHwYD
VR0jBBgwFoAUqEpqYwR93brm0Tm3pkVl7/Oo7KEwbwYIKwYBBQUHAQEEYzBhMC4G
CCsGAQUFBzABhiJodHRwOi8vb2NzcC5pbnQteDMubGV0c2VuY3J5cHQub3JnMC8G
CCsGAQUFBzAChiNodHRwOi8vY2VydC5pbnQteDMubGV0c2VuY3J5cHQub3JnLzAd
BgNVHREEFjAUggkqLm9uZS5jb22CB29uZS5jb20wTAYDVR0gBEUwQzAIBgZngQwB
AgEwNwYLKwYBBAGC3xMBAQEwKDAmBggrBgEFBQcCARYaaHR0cDovL2Nwcy5sZXRz
ZW5jcnlwdC5vcmcwggEEBgorBgEEAdZ5AgQCBIH1BIHyAPAAdwBvU3asMfAxGdiZ
AKRRFf93FRwR2QLBACkGjbIImjfZEwAAAWwtIW0YAAAEAwBIMEYCIQCByaMbhHux
B/2tjnT+4VbRB5jYhOTPLpvt2YDWcJEYCQIhAMO7Z4Por3wc7P1G3aNK6pYfw/jP
u1YWE54S75AqezV1AHUAY/Lbzeg7zCzPC3KEJ1drM6SNYXePvXWmOLHHaFRL2I0A
AAFsLSFs3wAABAMARjBEAiBLf/Ibq1vEufXgvsA7jPVR43LrSXYdHKxmQakVQ/Jv
owIgJeI0NMMY8Bhdx8cYGtP9/vDSTvI2E++fOIM8UOQnf48wDQYJKoZIhvcNAQEL
BQADggEBABg9H+saxqka+wRLgWhH8JxhCjUI7zA06MFcms8dEkENlkS9yJDvhwbt
p/vqhx8HI40AGCICUnmzTkJp4swRX2/+AgTLapSHSh2bFWfpMcVlTEkwSe5e0KFt
VFYDiM1fPgt7d+G2anU9yrpMmQmXPD+WnjctXHlVCrUc5QVSWWIOtTlBTE7hokRR
9Dl6jEv8QlQ6m5+Q6Rhlri+xWMqIg5Y6/2PWRQ5RMx0lc8aChVLlMkXwS6MW2o9S
fR940e9zRYMdXUrONuG6x5Tpz6dpOHaRlAek7FmmmzS2UJPMjVRS7BqZv5dCI7H/
rWmuzfHIL8/GIBtjj5DDIzUzhKOT0NQ=
-----END CERTIFICATE-----
