Certificate:
    Data:
        Version: 3 (0x2)
        Serial Number:
            07:21:61:dc:5b:e0:a4:81:e1:fb:38:37:3d:be:9b:ca
        Signature Algorithm: sha256WithRSAEncryption
        Issuer: C = US, O = DigiCert Inc, CN = DigiCert Cloud Services CA-1
        Validity
            Not Before: Jan 23 00:00:00 2019 GMT
            Not After : Jan 23 12:00:00 2021 GMT
        Subject: C = US, ST = Washington, L = Redmond, O = Microsoft Corporation, CN = outlook.com
        Subject Public Key Info:
            Public Key Algorithm: rsaEncryption
                RSA Public-Key: (2048 bit)
                Modulus:
                    00:de:48:ca:86:c4:c2:ab:75:3e:5a:a6:e7:bc:80:
                    6b:7f:c1:26:c1:b3:6c:b7:01:3b:ae:02:15:10:b4:
                    00:65:61:17:c5:67:e0:dc:fe:de:80:3e:1e:f2:fc:
                    5f:16:07:75:d4:60:34:97:d5:e2:c3:71:4c:f9:0b:
                    c7:35:77:0c:a2:ac:18:e9:09:de:93:94:46:d7:ac:
                    75:ab:d7:ef:52:1e:4f:28:35:fc:71:1a:cb:ca:44:
                    00:c0:67:59:38:d6:a7:ef:d0:0d:2c:09:23:cc:d9:
                    a2:2d:61:cd:4d:54:05:ba:c6:40:1d:8c:45:14:60:
                    b0:be:f1:46:8e:dc:75:ac:8d:38:9c:a9:cb:57:a0:
                    38:5e:1b:40:aa:29:a2:af:ca:2f:84:fd:fb:d7:01:
                    c3:fa:bc:b0:38:de:c5:0b:97:de:6f:0a:63:ba:30:
                    ec:08:ae:6e:70:62:53:b2:33:9d:4c:02:02:0d:28:
                    b3:96:1a:60:af:fb:1f:42:ac:30:44:7a:d7:b5:f8:
                    0f:ba:37:f1:9b:81:b4:6d:56:58:08:1e:8c:f6:8e:
                    d1:41:71:37:e5:93:fc:95:09:a6:b0:4f:65:2e:91:
                    c1:4f:11:02:8c:2f:b3:4a:5c:d9:ea:7f:02:cf:5a:
                    34:51:85:a9:9a:e8:9c:c3:22:8e:aa:53:19:92:7a:
                    dc:8b
                Exponent: 65537 (0x10001)
        X509v3 extensions:
            X509v3 Authority Key Identifier:
                keyid:DD:51:D0:A2:31:73:A9:73:AE:8F:B4:01:7E:5D:8C:57:CB:9F:F0:F7

            X509v3 Subject Key Identifier:
                C7:80:EB:67:76:F1:6D:E5:74:62:DE:72:25:FD:A6:3C:15:21:A7:54
            X509v3 Subject Alternative Name:
                DNS:*.clo.footprintdns.com, DNS:*.nrb.footprintdns.com, DNS:*.hotmail.com, DNS:*.internal.outlook.com, DNS:*.live.com, DNS:*.office.com, DNS:*.office365.com, DNS:*.outlook.com, DNS:*.outlook.office365.com, DNS:attachment.outlook.live.net, DNS:attachment.outlook.office.net, DNS:attachment.outlook.officeppe.net, DNS:ccs.login.microsoftonline.com, DNS:ccs-sdf.login.microsoftonline.com, DNS:hotmail.com, DNS:mail.services.live.com, DNS:office365.com, DNS:outlook.com, DNS:outlook.office.com, DNS:substrate.office.com, DNS:substrate-sdf.office.com, DNS:attachments.office.net, DNS:*.fp.measure.office.com, DNS:attachments-sdf.office.net, DNS:outlook-sdf.graph.microsoft.com
            X509v3 Key Usage: critical
                Digital Signature, Key Encipherment
            X509v3 Extended Key Usage:
                TLS Web Server Authentication, TLS Web Client Authentication
            X509v3 CRL Distribution Points:

                Full Name:
                  URI:http://crl3.digicert.com/DigiCertCloudServicesCA-1-g1.crl

                Full Name:
                  URI:http://crl4.digicert.com/DigiCertCloudServicesCA-1-g1.crl

            X509v3 Certificate Policies:
                Policy: 2.16.840.1.114412.1.1
                  CPS: https://www.digicert.com/CPS
                Policy: 2.23.140.1.2.2

            Authority Information Access:
                OCSP - URI:http://ocspx.digicert.com
                CA Issuers - URI:http://cacerts.digicert.com/DigiCertCloudServicesCA-1.crt

            X509v3 Basic Constraints: critical
                CA:FALSE
            CT Precertificate SCTs:
                Signed Certificate Timestamp:
                    Version   : v1 (0x0)
                    Log ID    : F6:5C:94:2F:D1:77:30:22:14:54:18:08:30:94:56:8E:
                                E3:4D:13:19:33:BF:DF:0C:2F:20:0B:CC:4E:F1:64:E3
                    Timestamp : Jan 23 00:30:52.988 2019 GMT
                    Extensions: none
                    Signature : ecdsa-with-SHA256
                                30:45:02:20:17:56:74:DA:89:02:34:C7:5F:00:0F:F0:
                                30:37:8A:6C:A8:5D:C9:DC:D2:76:44:AC:9C:7F:2B:A4:
                                11:96:5F:35:02:21:00:EE:7E:A1:A4:E7:FD:93:87:2D:
                                C7:6A:94:6C:40:48:79:04:5D:E2:0D:32:55:47:85:8B:
                                3F:77:AA:C5:CC:F3:76
                Signed Certificate Timestamp:
                    Version   : v1 (0x0)
                    Log ID    : 87:75:BF:E7:59:7C:F8:8C:43:99:5F:BD:F3:6E:FF:56:
                                8D:47:56:36:FF:4A:B5:60:C1:B4:EA:FF:5E:A0:83:0F
                    Timestamp : Jan 23 00:30:53.139 2019 GMT
                    Extensions: none
                    Signature : ecdsa-with-SHA256
                                30:45:02:21:00:95:65:9F:F9:3E:52:49:BE:6D:58:B0:
                                10:E0:AA:5E:99:0A:8C:FC:FF:2E:13:D2:0F:D3:C3:C2:
                                D5:94:9B:31:C1:02:20:45:96:A7:13:24:13:D3:1F:19:
                                2F:42:EA:EA:68:A8:81:63:2F:DF:69:9B:64:FD:76:0B:
                                7B:55:4D:AC:A3:DB:26
                Signed Certificate Timestamp:
                    Version   : v1 (0x0)
                    Log ID    : 6F:53:76:AC:31:F0:31:19:D8:99:00:A4:51:15:FF:77:
                                15:1C:11:D9:02:C1:00:29:06:8D:B2:08:9A:37:D9:13
                    Timestamp : Jan 23 00:30:53.316 2019 GMT
                    Extensions: none
                    Signature : ecdsa-with-SHA256
                                30:46:02:21:00:86:E4:80:09:6E:A4:00:17:FC:BE:63:
                                21:D1:79:E4:34:22:3A:5A:E7:0B:F1:9E:B9:29:65:F4:
                                40:9E:06:5D:4A:02:21:00:F3:10:F4:E7:10:09:11:71:
                                2A:D6:E6:8C:EE:F8:34:F9:4B:6E:6C:1A:D9:75:FA:E9:
                                D7:88:42:26:74:EB:BF:FA
    Signature Algorithm: sha256WithRSAEncryption
         0e:06:16:7f:fb:5c:27:f7:bf:a0:e5:01:1d:40:a8:57:9b:3c:
         ac:fa:b5:ac:1c:45:c5:8d:aa:93:b6:d5:ef:f6:6a:ca:3e:de:
         23:da:d8:0e:4a:e5:41:d2:44:77:c6:1e:90:d5:b5:7e:43:89:
         dc:41:d0:2b:d4:c5:14:d0:b0:83:16:1b:6e:f1:dc:00:eb:9e:
         0c:db:19:54:b8:ba:c5:8e:5d:48:34:b9:70:88:33:91:2d:54:
         a2:4e:d5:71:5f:9e:d1:34:0a:c8:e3:90:f8:32:f0:8b:e4:76:
         ab:ef:9c:43:04:a9:5b:bf:53:20:25:4e:9b:b4:da:aa:19:c2:
         b1:17:01:35:e2:8e:f0:4b:a3:6d:da:ac:35:2b:33:8d:bb:6b:
         b8:c2:3b:d7:28:d1:aa:b4:07:38:32:f6:b1:00:09:ca:84:f7:
         51:e2:b9:6f:d6:9a:3e:32:7e:fb:1b:17:31:00:1b:a7:fa:f1:
         2d:ce:16:f5:7f:10:59:6c:9c:f0:27:41:e1:e2:b9:13:c9:b1:
         aa:59:18:b3:07:09:b9:7d:e5:57:fe:b0:80:ae:49:9d:2d:2d:
         8d:96:5e:7f:f2:75:af:9a:50:86:64:fd:bc:60:c2:77:24:0d:
         74:00:89:ea:83:4b:f1:b7:f1:96:01:af:da:8a:25:47:38:5c:
         37:52:94:eb
-----BEGIN CERTIFICATE-----
MIII7zCCB9egAwIBAgIQByFh3FvgpIHh+zg3Pb6byjANBgkqhkiG9w0BAQsFADBL
MQswCQYDVQQGEwJVUzEVMBMGA1UEChMMRGlnaUNlcnQgSW5jMSUwIwYDVQQDExxE
aWdpQ2VydCBDbG91ZCBTZXJ2aWNlcyBDQS0xMB4XDTE5MDEyMzAwMDAwMFoXDTIx
MDEyMzEyMDAwMFowajELMAkGA1UEBhMCVVMxEzARBgNVBAgTCldhc2hpbmd0b24x
EDAOBgNVBAcTB1JlZG1vbmQxHjAcBgNVBAoTFU1pY3Jvc29mdCBDb3Jwb3JhdGlv
bjEUMBIGA1UEAxMLb3V0bG9vay5jb20wggEiMA0GCSqGSIb3DQEBAQUAA4IBDwAw
ggEKAoIBAQDeSMqGxMKrdT5apue8gGt/wSbBs2y3ATuuAhUQtABlYRfFZ+Dc/t6A
Ph7y/F8WB3XUYDSX1eLDcUz5C8c1dwyirBjpCd6TlEbXrHWr1+9SHk8oNfxxGsvK
RADAZ1k41qfv0A0sCSPM2aItYc1NVAW6xkAdjEUUYLC+8UaO3HWsjTicqctXoDhe
G0CqKaKvyi+E/fvXAcP6vLA43sULl95vCmO6MOwIrm5wYlOyM51MAgINKLOWGmCv
+x9CrDBEete1+A+6N/GbgbRtVlgIHoz2jtFBcTflk/yVCaawT2UukcFPEQKML7NK
XNnqfwLPWjRRhama6JzDIo6qUxmSetyLAgMBAAGjggWuMIIFqjAfBgNVHSMEGDAW
gBTdUdCiMXOpc66PtAF+XYxXy5/w9zAdBgNVHQ4EFgQUx4DrZ3bxbeV0Yt5yJf2m
PBUhp1QwggJKBgNVHREEggJBMIICPYIWKi5jbG8uZm9vdHByaW50ZG5zLmNvbYIW
Ki5ucmIuZm9vdHByaW50ZG5zLmNvbYINKi5ob3RtYWlsLmNvbYIWKi5pbnRlcm5h
bC5vdXRsb29rLmNvbYIKKi5saXZlLmNvbYIMKi5vZmZpY2UuY29tgg8qLm9mZmlj
ZTM2NS5jb22CDSoub3V0bG9vay5jb22CFyoub3V0bG9vay5vZmZpY2UzNjUuY29t
ghthdHRhY2htZW50Lm91dGxvb2subGl2ZS5uZXSCHWF0dGFjaG1lbnQub3V0bG9v
ay5vZmZpY2UubmV0giBhdHRhY2htZW50Lm91dGxvb2sub2ZmaWNlcHBlLm5ldIId
Y2NzLmxvZ2luLm1pY3Jvc29mdG9ubGluZS5jb22CIWNjcy1zZGYubG9naW4ubWlj
cm9zb2Z0b25saW5lLmNvbYILaG90bWFpbC5jb22CFm1haWwuc2VydmljZXMubGl2
ZS5jb22CDW9mZmljZTM2NS5jb22CC291dGxvb2suY29tghJvdXRsb29rLm9mZmlj
ZS5jb22CFHN1YnN0cmF0ZS5vZmZpY2UuY29tghhzdWJzdHJhdGUtc2RmLm9mZmlj
ZS5jb22CFmF0dGFjaG1lbnRzLm9mZmljZS5uZXSCFyouZnAubWVhc3VyZS5vZmZp
Y2UuY29tghphdHRhY2htZW50cy1zZGYub2ZmaWNlLm5ldIIfb3V0bG9vay1zZGYu
Z3JhcGgubWljcm9zb2Z0LmNvbTAOBgNVHQ8BAf8EBAMCBaAwHQYDVR0lBBYwFAYI
KwYBBQUHAwEGCCsGAQUFBwMCMIGNBgNVHR8EgYUwgYIwP6A9oDuGOWh0dHA6Ly9j
cmwzLmRpZ2ljZXJ0LmNvbS9EaWdpQ2VydENsb3VkU2VydmljZXNDQS0xLWcxLmNy
bDA/oD2gO4Y5aHR0cDovL2NybDQuZGlnaWNlcnQuY29tL0RpZ2lDZXJ0Q2xvdWRT
ZXJ2aWNlc0NBLTEtZzEuY3JsMEwGA1UdIARFMEMwNwYJYIZIAYb9bAEBMCowKAYI
KwYBBQUHAgEWHGh0dHBzOi8vd3d3LmRpZ2ljZXJ0LmNvbS9DUFMwCAYGZ4EMAQIC
MHwGCCsGAQUFBwEBBHAwbjAlBggrBgEFBQcwAYYZaHR0cDovL29jc3B4LmRpZ2lj
ZXJ0LmNvbTBFBggrBgEFBQcwAoY5aHR0cDovL2NhY2VydHMuZGlnaWNlcnQuY29t
L0RpZ2lDZXJ0Q2xvdWRTZXJ2aWNlc0NBLTEuY3J0MAwGA1UdEwEB/wQCMAAwggF/
BgorBgEEAdZ5AgQCBIIBbwSCAWsBaQB2APZclC/RdzAiFFQYCDCUVo7jTRMZM7/f
DC8gC8xO8WTjAAABaHgd6jwAAAQDAEcwRQIgF1Z02okCNMdfAA/wMDeKbKhdydzS
dkSsnH8rpBGWXzUCIQDufqGk5/2Thy3HapRsQEh5BF3iDTJVR4WLP3eqxczzdgB2
AId1v+dZfPiMQ5lfvfNu/1aNR1Y2/0q1YMG06v9eoIMPAAABaHgd6tMAAAQDAEcw
RQIhAJVln/k+Ukm+bViwEOCqXpkKjPz/LhPSD9PDwtWUmzHBAiBFlqcTJBPTHxkv
QurqaKiBYy/faZtk/XYLe1VNrKPbJgB3AG9Tdqwx8DEZ2JkApFEV/3cVHBHZAsEA
KQaNsgiaN9kTAAABaHgd64QAAAQDAEgwRgIhAIbkgAlupAAX/L5jIdF55DQiOlrn
C/GeuSll9ECeBl1KAiEA8xD05xAJEXEq1uaM7vg0+UtubBrZdfrp14hCJnTrv/ow
DQYJKoZIhvcNAQELBQADggEBAA4GFn/7XCf3v6DlAR1AqFebPKz6tawcRcWNqpO2
1e/2aso+3iPa2A5K5UHSRHfGHpDVtX5DidxB0CvUxRTQsIMWG27x3ADrngzbGVS4
usWOXUg0uXCIM5EtVKJO1XFfntE0CsjjkPgy8IvkdqvvnEMEqVu/UyAlTpu02qoZ
wrEXATXijvBLo23arDUrM427a7jCO9co0aq0Bzgy9rEACcqE91HiuW/Wmj4yfvsb
FzEAG6f68S3OFvV/EFlsnPAnQeHiuRPJsapZGLMHCbl95Vf+sICuSZ0tLY2WXn/y
da+aUIZk/bxgwnckDXQAieqDS/G38ZYBr9qKJUc4XDdSlOs=
-----END CERTIFICATE-----
