Certificate:
    Data:
        Version: 3 (0x2)
        Serial Number:
            03:e9:d0:e6:61:fe:b6:d4:98:c4:e7:c4:e5:f2:a8:b5:7d:dc
        Signature Algorithm: sha256WithRSAEncryption
        Issuer: C = US, O = Let's Encrypt, CN = Let's Encrypt Authority X3
        Validity
            Not Before: Jul 17 07:42:58 2019 GMT
            Not After : Oct 15 07:42:58 2019 GMT
        Subject: CN = send.one.com
        Subject Public Key Info:
            Public Key Algorithm: rsaEncryption
                RSA Public-Key: (2048 bit)
                Modulus:
                    00:c3:7d:31:9b:80:0a:d2:7e:49:e4:17:b7:81:b9:
                    c6:26:e9:b0:14:66:79:04:c2:8a:d6:23:05:0b:0a:
                    83:00:6a:34:7c:07:b8:ad:63:97:18:33:5e:35:3f:
                    ce:5c:20:7b:8c:10:e1:25:18:6f:bc:e7:75:19:ec:
                    d7:ba:4d:82:c0:be:76:25:78:44:28:b3:a2:33:82:
                    e2:75:96:a0:b1:f6:10:b3:eb:09:e5:f2:2e:8c:1a:
                    03:d0:52:b1:4b:d8:2d:05:d2:d3:e0:cf:84:7f:1f:
                    d8:ef:c3:6a:a0:e3:7a:a8:bb:30:f3:db:d5:99:eb:
                    f6:6b:3f:9a:a8:85:4f:5f:34:45:48:cf:32:8e:ca:
                    c9:f0:34:53:e2:81:bd:94:7f:0f:e9:f3:0e:66:7f:
                    8d:97:98:77:0f:7c:17:67:d9:f1:89:eb:23:cc:d9:
                    75:c9:36:68:55:f2:4e:e4:e2:b2:f9:9d:47:fc:9f:
                    8b:d5:69:39:dd:b8:81:ac:cb:bf:0a:fb:5c:46:48:
                    77:14:bc:20:79:b8:5e:7b:eb:2b:20:ce:09:29:0b:
                    f4:84:c1:33:0f:e9:97:61:73:67:e6:b6:7e:17:87:
                    ad:10:df:cc:bc:53:6d:21:07:0e:32:66:a2:2d:ca:
                    33:3b:91:ca:43:3b:f9:9b:df:6b:ae:2a:f0:07:b0:
                    8c:43
                Exponent: 65537 (0x10001)
        X509v3 extensions:
            X509v3 Key Usage: critical
                Digital Signature, Key Encipherment
            X509v3 Extended Key Usage:
                TLS Web Server Authentication, TLS Web Client Authentication
            X509v3 Basic Constraints: critical
                CA:FALSE
            X509v3 Subject Key Identifier:
                C0:6E:01:A0:89:BF:C0:D2:B6:C2:87:10:EB:67:D4:21:12:11:47:77
            X509v3 Authority Key Identifier:
                keyid:A8:4A:6A:63:04:7D:DD:BA:E6:D1:39:B7:A6:45:65:EF:F3:A8:EC:A1

            Authority Information Access:
                OCSP - URI:http://ocsp.int-x3.letsencrypt.org
                CA Issuers - URI:http://cert.int-x3.letsencrypt.org/

            X509v3 Subject Alternative Name:
                DNS:appmail.one.com, DNS:csmtp.one.com, DNS:customer-smtp.one.com, DNS:send.one.com, DNS:sent.one.com
            X509v3 Certificate Policies:
                Policy: 2.23.140.1.2.1
                Policy: 1.3.6.1.4.1.44947.1.1.1
                  CPS: http://cps.letsencrypt.org

            CT Precertificate SCTs:
                Signed Certificate Timestamp:
                    Version   : v1 (0x0)
                    Log ID    : 74:7E:DA:83:31:AD:33:10:91:21:9C:CE:25:4F:42:70:
                                C2:BF:FD:5E:42:20:08:C6:37:35:79:E6:10:7B:CC:56
                    Timestamp : Jul 17 08:42:58.134 2019 GMT
                    Extensions: none
                    Signature : ecdsa-with-SHA256
                                30:45:02:21:00:9E:74:21:60:9F:DB:DE:90:A4:87:A3:
                                59:D1:82:E4:02:D2:14:A0:A3:2A:CE:3D:4C:A3:80:90:
                                86:B2:25:EA:AC:02:20:2D:E5:90:C0:56:54:B3:43:0F:
                                50:F6:00:9D:F6:DF:BD:27:31:09:7C:54:F0:F2:A2:2F:
                                90:3D:48:AE:87:D2:52
                Signed Certificate Timestamp:
                    Version   : v1 (0x0)
                    Log ID    : 29:3C:51:96:54:C8:39:65:BA:AA:50:FC:58:07:D4:B7:
                                6F:BF:58:7A:29:72:DC:A4:C3:0C:F4:E5:45:47:F4:78
                    Timestamp : Jul 17 08:42:58.159 2019 GMT
                    Extensions: none
                    Signature : ecdsa-with-SHA256
                                30:45:02:20:74:67:F5:C9:41:7A:DF:95:E9:4A:1B:8D:
                                5F:ED:95:69:0D:93:1C:78:09:D0:4C:24:CD:93:C9:C1:
                                95:C1:14:82:02:21:00:A9:C8:8C:C1:89:F1:A3:C8:EE:
                                F5:C6:16:8C:0E:67:DF:00:C9:9C:A8:67:A5:A6:CB:A6:
                                C7:F5:EA:31:D3:AD:AE
    Signature Algorithm: sha256WithRSAEncryption
         8f:08:24:85:96:32:f2:cf:b4:66:d9:73:2e:b1:d7:e2:fe:7b:
         ef:a8:27:2d:f1:17:78:52:e3:0f:7f:6e:3c:c2:8d:db:71:de:
         45:cf:26:62:eb:ef:11:a2:03:16:ea:9f:59:a7:3a:6b:c7:69:
         19:d1:0e:5a:f6:4a:b0:29:3d:a3:17:6d:71:8f:b1:db:22:8f:
         de:bf:db:ac:b4:0d:a0:cc:ac:44:66:93:61:7b:17:ae:13:b8:
         b3:9b:e5:77:c9:36:33:49:ff:ec:f1:73:c7:2a:cd:a3:79:7e:
         ac:e6:67:81:37:f1:4c:96:3a:b8:4c:0a:92:ca:41:17:7f:7f:
         95:f5:6b:f4:e8:87:8f:8c:88:5c:99:48:eb:40:6e:40:cd:d8:
         4f:b0:29:da:d5:47:6e:4f:d9:1d:8e:00:b3:46:e6:05:8b:e8:
         9d:f2:20:e9:ec:46:f2:23:42:11:a8:aa:46:11:bb:30:da:79:
         4e:9f:16:c6:17:8a:8e:c6:16:4b:f5:83:18:ee:03:61:3b:08:
         6b:eb:f7:f6:35:6e:ea:38:c8:51:01:29:62:b4:83:e4:ea:03:
         ec:29:e7:c4:9c:ba:5e:be:56:b6:c5:c7:9a:6c:c4:aa:8d:f8:
         90:4d:0f:7a:55:46:4a:39:f0:1c:08:62:f8:cc:10:3b:cc:de:
         06:55:f7:da
-----BEGIN CERTIFICATE-----
MIIFlTCCBH2gAwIBAgISA+nQ5mH+ttSYxOfE5fKotX3cMA0GCSqGSIb3DQEBCwUA
MEoxCzAJBgNVBAYTAlVTMRYwFAYDVQQKEw1MZXQncyBFbmNyeXB0MSMwIQYDVQQD
ExpMZXQncyBFbmNyeXB0IEF1dGhvcml0eSBYMzAeFw0xOTA3MTcwNzQyNThaFw0x
OTEwMTUwNzQyNThaMBcxFTATBgNVBAMTDHNlbmQub25lLmNvbTCCASIwDQYJKoZI
hvcNAQEBBQADggEPADCCAQoCggEBAMN9MZuACtJ+SeQXt4G5xibpsBRmeQTCitYj
BQsKgwBqNHwHuK1jlxgzXjU/zlwge4wQ4SUYb7zndRns17pNgsC+diV4RCizojOC
4nWWoLH2ELPrCeXyLowaA9BSsUvYLQXS0+DPhH8f2O/DaqDjeqi7MPPb1Znr9ms/
mqiFT180RUjPMo7KyfA0U+KBvZR/D+nzDmZ/jZeYdw98F2fZ8YnrI8zZdck2aFXy
TuTisvmdR/yfi9VpOd24gazLvwr7XEZIdxS8IHm4XnvrKyDOCSkL9ITBMw/pl2Fz
Z+a2fheHrRDfzLxTbSEHDjJmoi3KMzuRykM7+Zvfa64q8AewjEMCAwEAAaOCAqYw
ggKiMA4GA1UdDwEB/wQEAwIFoDAdBgNVHSUEFjAUBggrBgEFBQcDAQYIKwYBBQUH
AwIwDAYDVR0TAQH/BAIwADAdBgNVHQ4EFgQUwG4BoIm/wNK2wocQ62fUIRIRR3cw
HwYDVR0jBBgwFoAUqEpqYwR93brm0Tm3pkVl7/Oo7KEwbwYIKwYBBQUHAQEEYzBh
MC4GCCsGAQUFBzABhiJodHRwOi8vb2NzcC5pbnQteDMubGV0c2VuY3J5cHQub3Jn
MC8GCCsGAQUFBzAChiNodHRwOi8vY2VydC5pbnQteDMubGV0c2VuY3J5cHQub3Jn
LzBcBgNVHREEVTBTgg9hcHBtYWlsLm9uZS5jb22CDWNzbXRwLm9uZS5jb22CFWN1
c3RvbWVyLXNtdHAub25lLmNvbYIMc2VuZC5vbmUuY29tggxzZW50Lm9uZS5jb20w
TAYDVR0gBEUwQzAIBgZngQwBAgEwNwYLKwYBBAGC3xMBAQEwKDAmBggrBgEFBQcC
ARYaaHR0cDovL2Nwcy5sZXRzZW5jcnlwdC5vcmcwggEEBgorBgEEAdZ5AgQCBIH1
BIHyAPAAdgB0ftqDMa0zEJEhnM4lT0Jwwr/9XkIgCMY3NXnmEHvMVgAAAWv/GVLW
AAAEAwBHMEUCIQCedCFgn9vekKSHo1nRguQC0hSgoyrOPUyjgJCGsiXqrAIgLeWQ
wFZUs0MPUPYAnfbfvScxCXxU8PKiL5A9SK6H0lIAdgApPFGWVMg5ZbqqUPxYB9S3
b79Yeily3KTDDPTlRUf0eAAAAWv/GVLvAAAEAwBHMEUCIHRn9clBet+V6UobjV/t
lWkNkxx4CdBMJM2TycGVwRSCAiEAqciMwYnxo8ju9cYWjA5n3wDJnKhnpabLpsf1
6jHTra4wDQYJKoZIhvcNAQELBQADggEBAI8IJIWWMvLPtGbZcy6x1+L+e++oJy3x
F3hS4w9/bjzCjdtx3kXPJmLr7xGiAxbqn1mnOmvHaRnRDlr2SrApPaMXbXGPsdsi
j96/26y0DaDMrERmk2F7F64TuLOb5XfJNjNJ/+zxc8cqzaN5fqzmZ4E38UyWOrhM
CpLKQRd/f5X1a/Toh4+MiFyZSOtAbkDN2E+wKdrVR25P2R2OALNG5gWL6J3yIOns
RvIjQhGoqkYRuzDaeU6fFsYXio7GFkv1gxjuA2E7CGvr9/Y1buo4yFEBKWK0g+Tq
A+wp58Scul6+VrbFx5psxKqN+JBND3pVRko58BwIYvjMEDvM3gZV99o=
-----END CERTIFICATE-----
